; Function Attrs: nounwind uwtable
define range(i32 -2147483648, 1) i32 @av_opt_eval_int64(ptr noundef %0, ptr noundef readonly captures(address_is_null) %1, ptr noundef %2, ptr noundef captures(none) %3) local_unnamed_addr #2 {
  %.not = icmp eq ptr %1, null
  br i1 %.not, label %14, label %5

5:                                                ; preds = %4
  %6 = getelementptr inbounds nuw i8, ptr %1, i64 20
  %7 = load i32, ptr %6, align 4, !tbaa !18
  %.not9 = icmp eq i32 %7, 3
  br i1 %.not9, label %8, label %14

8:                                                ; preds = %5
  %9 = getelementptr inbounds nuw i8, ptr %1, i64 48
  %10 = load i32, ptr %9, align 8, !tbaa !21
  %11 = and i32 %10, 128
  %.not10 = icmp eq i32 %11, 0
  br i1 %.not10, label %12, label %14

12:                                               ; preds = %8
  %13 = tail call fastcc i32 @set_string_number(ptr noundef %0, ptr noundef %0, ptr noundef nonnull %1, ptr noundef %2, ptr noundef %3)
  br label %14

14:                                               ; preds = %4, %5, %8, %12
  %.0 = phi i32 [ %13, %12 ], [ -22, %8 ], [ -22, %5 ], [ -22, %4 ]
  ret i32 %.0
}